; Function Attrs: mustprogress uwtable
define internal void @"_ZN4absl12lts_2024072222internal_any_invocable12LocalInvokerILb0EvRZN9grpc_core13ClientChannel22ResetConnectionBackoffEvE3$_0JEEET0_PNS1_15TypeErasedStateEDpNS1_18ForwardedParameterIT2_E4typeE"(ptr noundef readonly captures(none) %0) #13 {
  %.val = load ptr, ptr %0, align 8, !tbaa !219
  %2 = getelementptr i8, ptr %.val, i64 448
  %.val.val = load ptr, ptr %2, align 8, !tbaa !281
  %.not.i.i.i.i.i = icmp eq ptr %.val.val, null
  br i1 %.not.i.i.i.i.i, label %"_ZN4absl12lts_2024072222internal_any_invocable7InvokeRIvRZN9grpc_core13ClientChannel22ResetConnectionBackoffEvE3$_0JEvEEvOT0_DpOT1_.exit", label %3

3:                                                ; preds = %1
  %4 = load ptr, ptr %.val.val, align 8, !tbaa !8
  %5 = getelementptr inbounds nuw i8, ptr %4, i64 48
  %6 = load ptr, ptr %5, align 8
  tail call void %6(ptr noundef nonnull align 8 dereferenceable(56) %.val.val)
  br label %"_ZN4absl12lts_2024072222internal_any_invocable7InvokeRIvRZN9grpc_core13ClientChannel22ResetConnectionBackoffEvE3$_0JEvEEvOT0_DpOT1_.exit"

"_ZN4absl12lts_2024072222internal_any_invocable7InvokeRIvRZN9grpc_core13ClientChannel22ResetConnectionBackoffEvE3$_0JEvEEvOT0_DpOT1_.exit": ; preds = %1, %3
  ret void
}